target datalayout = "e-m:e-p270:32:32-p271:32:32-p272:64:64-i64:64-i128:128-f80:128-n8:16:32:64-S128"
target triple = "x86_64-pc-linux-gnu"

@common_log_verbosity_thold = external global i32, align 4
@.str.2 = private unnamed_addr constant [45 x i8] c"failed to set process priority %d : %s (%d)\0A\00", align 1

; Function Attrs: mustprogress uwtable
define noundef zeroext i1 @_Z20set_process_priority19ggml_sched_priority(i32 noundef %0) #4 {
  %2 = alloca i1, align 1
  %3 = alloca i32, align 4
  %4 = alloca i32, align 4
  %5 = alloca i32, align 4
  store i32 %0, ptr %3, align 4, !tbaa !27
  %6 = load i32, ptr %3, align 4, !tbaa !27
  %7 = icmp eq i32 %6, 0
  br i1 %7, label %8, label %9

8:                                                ; preds = %1
  store i1 true, ptr %2, align 1
  br label %36

9:                                                ; preds = %1
  call void @llvm.lifetime.start.p0(i64 4, ptr %4) #3
  store i32 0, ptr %4, align 4, !tbaa !3
  %10 = load i32, ptr %3, align 4, !tbaa !27
  switch i32 %10, label %15 [
    i32 0, label %11
    i32 1, label %12
    i32 2, label %13
    i32 3, label %14
  ]

11:                                               ; preds = %9
  store i32 0, ptr %4, align 4, !tbaa !3
  br label %15

12:                                               ; preds = %9
  store i32 -5, ptr %4, align 4, !tbaa !3
  br label %15

13:                                               ; preds = %9
  store i32 -10, ptr %4, align 4, !tbaa !3
  br label %15

14:                                               ; preds = %9
  store i32 -20, ptr %4, align 4, !tbaa !3
  br label %15

15:                                               ; preds = %9, %14, %13, %12, %11
  %16 = load i32, ptr %4, align 4, !tbaa !3
  %17 = call i32 @setpriority(i32 noundef 0, i32 noundef 0, i32 noundef %16) #3
  %18 = icmp ne i32 %17, 0
  br i1 %18, label %34, label %19

19:                                               ; preds = %15
  br label %20

20:                                               ; preds = %19
  %21 = load i32, ptr @common_log_verbosity_thold, align 4, !tbaa !3
  %22 = icmp sle i32 0, %21
  br i1 %22, label %23, label %31

23:                                               ; preds = %20
  %24 = call noundef ptr @_Z15common_log_mainv()
  %25 = load i32, ptr %3, align 4, !tbaa !27
  %26 = call ptr @__errno_location() #25
  %27 = load i32, ptr %26, align 4, !tbaa !3
  %28 = call ptr @strerror(i32 noundef %27) #3
  %29 = call ptr @__errno_location() #25
  %30 = load i32, ptr %29, align 4, !tbaa !3
  call void (ptr, i32, ptr, ...) @_Z14common_log_addP10common_log14ggml_log_levelPKcz(ptr noundef %24, i32 noundef 3, ptr noundef @.str.2, i32 noundef %25, ptr noundef %28, i32 noundef %30)
  br label %31

31:                                               ; preds = %23, %20
  br label %32

32:                                               ; preds = %31
  br label %33

33:                                               ; preds = %32
  store i1 false, ptr %2, align 1
  store i32 1, ptr %5, align 4
  br label %35

34:                                               ; preds = %15
  store i1 true, ptr %2, align 1
  store i32 1, ptr %5, align 4
  br label %35

35:                                               ; preds = %34, %33
  call void @llvm.lifetime.end.p0(i64 4, ptr %4) #3
  br label %36

36:                                               ; preds = %35, %8
  %37 = load i1, ptr %2, align 1
  ret i1 %37
}