; Function Attrs: mustprogress uwtable
define noundef zeroext i1 @_Z20set_process_priority19ggml_sched_priority(i32 noundef %0) local_unnamed_addr #3 {
  switch i32 %0, label %5 [
    i32 0, label %15
    i32 3, label %4
    i32 1, label %2
    i32 2, label %3
  ]

2:                                                ; preds = %1
  br label %5

3:                                                ; preds = %1
  br label %5

4:                                                ; preds = %1
  br label %5

5:                                                ; preds = %1, %4, %3, %2
  %.0 = phi i32 [ -20, %4 ], [ -10, %3 ], [ -5, %2 ], [ 0, %1 ]
  %6 = tail call i32 @setpriority(i32 noundef 0, i32 noundef 0, i32 noundef %.0) #37
  %.not = icmp ne i32 %6, 0
  %7 = load i32, ptr @common_log_verbosity_thold, align 4
  %8 = icmp slt i32 %7, 0
  %or.cond.not = select i1 %.not, i1 true, i1 %8
  br i1 %or.cond.not, label %15, label %9

9:                                                ; preds = %5
  %10 = tail call noundef ptr @_Z15common_log_mainv()
  %11 = tail call ptr @__errno_location() #43
  %12 = load i32, ptr %11, align 4, !tbaa !72
  %13 = tail call ptr @strerror(i32 noundef %12) #37
  %14 = load i32, ptr %11, align 4, !tbaa !72
  tail call void (ptr, i32, ptr, ...) @_Z14common_log_addP10common_log14ggml_log_levelPKcz(ptr noundef %10, i32 noundef 3, ptr noundef nonnull @.str.2, i32 noundef %0, ptr noundef %13, i32 noundef %14)
  br label %15

15:                                               ; preds = %9, %5, %1
  %.04 = phi i1 [ true, %1 ], [ %.not, %5 ], [ false, %9 ]
  ret i1 %.04
}